; Function Attrs: mustprogress nofree norecurse nosync nounwind willreturn memory(argmem: read) uwtable
define noundef i32 @_ZNK10open_spiel8checkers12CheckersGame18NumDistinctActionsEv(ptr nocapture noundef nonnull readonly align 8 dereferenceable(288) %0) unnamed_addr #6 align 2 {
  %2 = getelementptr inbounds nuw i8, ptr %0, i64 280
  %3 = load i32, ptr %2, align 8
  %4 = getelementptr inbounds nuw i8, ptr %0, i64 284
  %5 = load i32, ptr %4, align 4
  %6 = shl i32 %3, 3
  %7 = mul i32 %6, %5
  ret i32 %7
}